target datalayout = "e-m:e-p270:32:32-p271:32:32-p272:64:64-i64:64-i128:128-f80:128-n8:16:32:64-S128"
target triple = "x86_64-pc-linux-gnu"

%"class.llvm::SmallVectorBase" = type { ptr, i32, i32 }
%"class.llvm::SmallPtrSetImplBase.base" = type <{ ptr, ptr, i32, i32, i32 }>
%"class.std::_Function_base" = type { %"union.std::_Any_data", ptr }
%"union.std::_Any_data" = type { %"union.std::_Nocopy_types" }
%"union.std::_Nocopy_types" = type { { i64, i64 } }
%"class.llvm::SlotIndex" = type { %"class.llvm::PointerIntPair" }
%"class.llvm::PointerIntPair" = type { %"struct.llvm::detail::PunnedPointer" }
%"struct.llvm::detail::PunnedPointer" = type { [8 x i8] }
%"class.std::function.78" = type { %"class.std::_Function_base", ptr }
%"class.llvm::RAGreedy" = type <{ %"class.llvm::MachineFunctionPass", %"class.llvm::RegAllocBase", %"class.llvm::LiveRangeEdit::Delegate", ptr, ptr, ptr, ptr, ptr, ptr, ptr, ptr, ptr, ptr, %"class.std::unique_ptr.83", %"class.std::priority_queue", %"class.std::unique_ptr.96", %"class.std::optional", %"class.std::unique_ptr.111", %"class.std::unique_ptr.119", i8, [7 x i8], %"class.std::unique_ptr.127", %"class.std::unique_ptr.135", %"class.llvm::InterferenceCache", %"class.llvm::SmallVector.153", %"class.llvm::SmallVector.158", %"class.llvm::SmallVector.163", %"class.llvm::BlockFrequency", %"class.llvm::SmallSetVector", %"class.llvm::ArrayRef", i8, i8, [6 x i8] }>
%"class.llvm::MachineFunctionPass" = type { %"class.llvm::FunctionPass.base", %"class.llvm::MachineFunctionProperties", %"class.llvm::MachineFunctionProperties", %"class.llvm::MachineFunctionProperties" }
%"class.llvm::FunctionPass.base" = type { %"class.llvm::Pass.base" }
%"class.llvm::Pass.base" = type <{ ptr, ptr, ptr, i32 }>
%"class.llvm::MachineFunctionProperties" = type { %"class.std::bitset" }
%"class.std::bitset" = type { %"struct.std::_Base_bitset" }
%"struct.std::_Base_bitset" = type { i64 }
%"class.llvm::RegAllocBase" = type { ptr, ptr, ptr, ptr, ptr, ptr, %"class.llvm::RegisterClassInfo", %"class.std::function.78", %"class.llvm::SmallPtrSet.80" }
%"class.llvm::RegisterClassInfo" = type { %"class.std::unique_ptr", i32, ptr, ptr, %"class.llvm::SmallVector.57", %"class.llvm::SmallVector.63", %"class.llvm::BitVector", %"class.llvm::BitVector", %"class.std::unique_ptr.70", %"class.llvm::ArrayRef" }
%"class.std::unique_ptr" = type { %"struct.std::__uniq_ptr_data" }
%"struct.std::__uniq_ptr_data" = type { %"class.std::__uniq_ptr_impl" }
%"class.std::__uniq_ptr_impl" = type { %"class.std::tuple" }
%"class.std::tuple" = type { %"struct.std::_Tuple_impl" }
%"struct.std::_Tuple_impl" = type { %"struct.std::_Head_base.56" }
%"struct.std::_Head_base.56" = type { ptr }
%"class.llvm::SmallVector.57" = type { %"class.llvm::SmallVectorImpl.58", %"struct.llvm::SmallVectorStorage.62" }
%"class.llvm::SmallVectorImpl.58" = type { %"class.llvm::SmallVectorTemplateBase.59" }
%"class.llvm::SmallVectorTemplateBase.59" = type { %"class.llvm::SmallVectorTemplateCommon.60" }
%"class.llvm::SmallVectorTemplateCommon.60" = type { %"class.llvm::SmallVectorBase.61" }
%"class.llvm::SmallVectorBase.61" = type { ptr, i64, i64 }
%"struct.llvm::SmallVectorStorage.62" = type { [32 x i8] }
%"class.llvm::SmallVector.63" = type { %"class.llvm::SmallVectorImpl.58", %"struct.llvm::SmallVectorStorage.64" }
%"struct.llvm::SmallVectorStorage.64" = type { [40 x i8] }
%"class.llvm::BitVector" = type <{ %"class.llvm::SmallVector.65", i32, [4 x i8] }>
%"class.llvm::SmallVector.65" = type { %"class.llvm::SmallVectorImpl.66", %"struct.llvm::SmallVectorStorage.69" }
%"class.llvm::SmallVectorImpl.66" = type { %"class.llvm::SmallVectorTemplateBase.67" }
%"class.llvm::SmallVectorTemplateBase.67" = type { %"class.llvm::SmallVectorTemplateCommon.68" }
%"class.llvm::SmallVectorTemplateCommon.68" = type { %"class.llvm::SmallVectorBase" }
%"struct.llvm::SmallVectorStorage.69" = type { [48 x i8] }
%"class.std::unique_ptr.70" = type { %"struct.std::__uniq_ptr_data.71" }
%"struct.std::__uniq_ptr_data.71" = type { %"class.std::__uniq_ptr_impl.72" }
%"class.std::__uniq_ptr_impl.72" = type { %"class.std::tuple.73" }
%"class.std::tuple.73" = type { %"struct.std::_Tuple_impl.74" }
%"struct.std::_Tuple_impl.74" = type { %"struct.std::_Head_base.77" }
%"struct.std::_Head_base.77" = type { ptr }
%"class.llvm::SmallPtrSet.80" = type { %"class.llvm::SmallPtrSetImpl.base.82", [32 x ptr] }
%"class.llvm::SmallPtrSetImpl.base.82" = type { %"class.llvm::SmallPtrSetImplBase.base" }
%"class.llvm::LiveRangeEdit::Delegate" = type { ptr }
%"class.std::unique_ptr.83" = type { %"struct.std::__uniq_ptr_data.84" }
%"struct.std::__uniq_ptr_data.84" = type { %"class.std::__uniq_ptr_impl.85" }
%"class.std::__uniq_ptr_impl.85" = type { %"class.std::tuple.86" }
%"class.std::tuple.86" = type { %"struct.std::_Tuple_impl.87" }
%"struct.std::_Tuple_impl.87" = type { %"struct.std::_Head_base.90" }
%"struct.std::_Head_base.90" = type { ptr }
%"class.std::priority_queue" = type <{ %"class.std::vector.91", [8 x i8] }>
%"class.std::vector.91" = type { %"struct.std::_Vector_base.92" }
%"struct.std::_Vector_base.92" = type { %"struct.std::_Vector_base<std::pair<unsigned int, unsigned int>, std::allocator<std::pair<unsigned int, unsigned int>>>::_Vector_impl" }
%"struct.std::_Vector_base<std::pair<unsigned int, unsigned int>, std::allocator<std::pair<unsigned int, unsigned int>>>::_Vector_impl" = type { %"struct.std::_Vector_base<std::pair<unsigned int, unsigned int>, std::allocator<std::pair<unsigned int, unsigned int>>>::_Vector_impl_data" }
%"struct.std::_Vector_base<std::pair<unsigned int, unsigned int>, std::allocator<std::pair<unsigned int, unsigned int>>>::_Vector_impl_data" = type { ptr, ptr, ptr }
%"class.std::unique_ptr.96" = type { %"struct.std::__uniq_ptr_data.97" }
%"struct.std::__uniq_ptr_data.97" = type { %"class.std::__uniq_ptr_impl.98" }
%"class.std::__uniq_ptr_impl.98" = type { %"class.std::tuple.99" }
%"class.std::tuple.99" = type { %"struct.std::_Tuple_impl.100" }
%"struct.std::_Tuple_impl.100" = type { %"struct.std::_Head_base.103" }
%"struct.std::_Head_base.103" = type { ptr }
%"class.std::optional" = type { %"struct.std::_Optional_base" }
%"struct.std::_Optional_base" = type { %"struct.std::_Optional_payload" }
%"struct.std::_Optional_payload" = type { %"struct.std::_Optional_payload.base", [7 x i8] }
%"struct.std::_Optional_payload.base" = type { %"struct.std::_Optional_payload_base.base" }
%"struct.std::_Optional_payload_base.base" = type <{ %"union.std::_Optional_payload_base<llvm::RAGreedy::ExtraRegInfo>::_Storage", i8 }>
%"union.std::_Optional_payload_base<llvm::RAGreedy::ExtraRegInfo>::_Storage" = type { %"class.llvm::RAGreedy::ExtraRegInfo" }
%"class.llvm::RAGreedy::ExtraRegInfo" = type { %"class.llvm::IndexedMap", i32, [4 x i8] }
%"class.llvm::IndexedMap" = type <{ %"class.llvm::SmallVector.105", %"struct.llvm::RAGreedy::ExtraRegInfo::RegInfo", [8 x i8] }>
%"class.llvm::SmallVector.105" = type { %"class.llvm::SmallVectorImpl.106" }
%"class.llvm::SmallVectorImpl.106" = type { %"class.llvm::SmallVectorTemplateBase.107" }
%"class.llvm::SmallVectorTemplateBase.107" = type { %"class.llvm::SmallVectorTemplateCommon.108" }
%"class.llvm::SmallVectorTemplateCommon.108" = type { %"class.llvm::SmallVectorBase" }
%"struct.llvm::RAGreedy::ExtraRegInfo::RegInfo" = type { i32, i32 }
%"class.std::unique_ptr.111" = type { %"struct.std::__uniq_ptr_data.112" }
%"struct.std::__uniq_ptr_data.112" = type { %"class.std::__uniq_ptr_impl.113" }
%"class.std::__uniq_ptr_impl.113" = type { %"class.std::tuple.114" }
%"class.std::tuple.114" = type { %"struct.std::_Tuple_impl.115" }
%"struct.std::_Tuple_impl.115" = type { %"struct.std::_Head_base.118" }
%"struct.std::_Head_base.118" = type { ptr }
%"class.std::unique_ptr.119" = type { %"struct.std::__uniq_ptr_data.120" }
%"struct.std::__uniq_ptr_data.120" = type { %"class.std::__uniq_ptr_impl.121" }
%"class.std::__uniq_ptr_impl.121" = type { %"class.std::tuple.122" }
%"class.std::tuple.122" = type { %"struct.std::_Tuple_impl.123" }
%"struct.std::_Tuple_impl.123" = type { %"struct.std::_Head_base.126" }
%"struct.std::_Head_base.126" = type { ptr }
%"class.std::unique_ptr.127" = type { %"struct.std::__uniq_ptr_data.128" }
%"struct.std::__uniq_ptr_data.128" = type { %"class.std::__uniq_ptr_impl.129" }
%"class.std::__uniq_ptr_impl.129" = type { %"class.std::tuple.130" }
%"class.std::tuple.130" = type { %"struct.std::_Tuple_impl.131" }
%"struct.std::_Tuple_impl.131" = type { %"struct.std::_Head_base.134" }
%"struct.std::_Head_base.134" = type { ptr }
%"class.std::unique_ptr.135" = type { %"struct.std::__uniq_ptr_data.136" }
%"struct.std::__uniq_ptr_data.136" = type { %"class.std::__uniq_ptr_impl.137" }
%"class.std::__uniq_ptr_impl.137" = type { %"class.std::tuple.138" }
%"class.std::tuple.138" = type { %"struct.std::_Tuple_impl.139" }
%"struct.std::_Tuple_impl.139" = type { %"struct.std::_Head_base.142" }
%"struct.std::_Head_base.142" = type { ptr }
%"class.llvm::InterferenceCache" = type { ptr, ptr, ptr, ptr, i64, i32, [32 x %"class.llvm::InterferenceCache::Entry"] }
%"class.llvm::InterferenceCache::Entry" = type { %"class.llvm::MCRegister", i32, i32, ptr, ptr, ptr, %"class.llvm::SlotIndex", %"class.llvm::SmallVector.143", %"class.llvm::SmallVector.148" }
%"class.llvm::MCRegister" = type { i32 }
%"class.llvm::SmallVector.143" = type { %"class.llvm::SmallVectorImpl.144", %"struct.llvm::SmallVectorStorage.147" }
%"class.llvm::SmallVectorImpl.144" = type { %"class.llvm::SmallVectorTemplateBase.145" }
%"class.llvm::SmallVectorTemplateBase.145" = type { %"class.llvm::SmallVectorTemplateCommon.146" }
%"class.llvm::SmallVectorTemplateCommon.146" = type { %"class.llvm::SmallVectorBase" }
%"struct.llvm::SmallVectorStorage.147" = type { [448 x i8] }
%"class.llvm::SmallVector.148" = type { %"class.llvm::SmallVectorImpl.149", %"struct.llvm::SmallVectorStorage.152" }
%"class.llvm::SmallVectorImpl.149" = type { %"class.llvm::SmallVectorTemplateBase.150" }
%"class.llvm::SmallVectorTemplateBase.150" = type { %"class.llvm::SmallVectorTemplateCommon.151" }
%"class.llvm::SmallVectorTemplateCommon.151" = type { %"class.llvm::SmallVectorBase" }
%"struct.llvm::SmallVectorStorage.152" = type { [192 x i8] }
%"class.llvm::SmallVector.153" = type { %"class.llvm::SmallVectorImpl.154", %"struct.llvm::SmallVectorStorage.157" }
%"class.llvm::SmallVectorImpl.154" = type { %"class.llvm::SmallVectorTemplateBase.155" }
%"class.llvm::SmallVectorTemplateBase.155" = type { %"class.llvm::SmallVectorTemplateCommon.156" }
%"class.llvm::SmallVectorTemplateCommon.156" = type { %"class.llvm::SmallVectorBase" }
%"struct.llvm::SmallVectorStorage.157" = type { [64 x i8] }
%"class.llvm::SmallVector.158" = type { %"class.llvm::SmallVectorImpl.159", %"struct.llvm::SmallVectorStorage.162" }
%"class.llvm::SmallVectorImpl.159" = type { %"class.llvm::SmallVectorTemplateBase.160" }
%"class.llvm::SmallVectorTemplateBase.160" = type { %"class.llvm::SmallVectorTemplateCommon.161" }
%"class.llvm::SmallVectorTemplateCommon.161" = type { %"class.llvm::SmallVectorBase" }
%"struct.llvm::SmallVectorStorage.162" = type { [4608 x i8] }
%"class.llvm::SmallVector.163" = type { %"class.llvm::SmallVectorImpl.164", %"struct.llvm::SmallVectorStorage.167" }
%"class.llvm::SmallVectorImpl.164" = type { %"class.llvm::SmallVectorTemplateBase.165" }
%"class.llvm::SmallVectorTemplateBase.165" = type { %"class.llvm::SmallVectorTemplateCommon.166" }
%"class.llvm::SmallVectorTemplateCommon.166" = type { %"class.llvm::SmallVectorBase" }
%"struct.llvm::SmallVectorStorage.167" = type { [128 x i8] }
%"class.llvm::BlockFrequency" = type { i64 }
%"class.llvm::SmallSetVector" = type { %"class.llvm::SetVector" }
%"class.llvm::SetVector" = type { %"class.llvm::DenseSet", %"class.llvm::SmallVector.171" }
%"class.llvm::DenseSet" = type { %"class.llvm::detail::DenseSetImpl" }
%"class.llvm::detail::DenseSetImpl" = type { %"class.llvm::DenseMap.168" }
%"class.llvm::DenseMap.168" = type <{ ptr, i32, i32, i32, [4 x i8] }>
%"class.llvm::SmallVector.171" = type { %"class.llvm::SmallVectorImpl.172", %"struct.llvm::SmallVectorStorage.175" }
%"class.llvm::SmallVectorImpl.172" = type { %"class.llvm::SmallVectorTemplateBase.173" }
%"class.llvm::SmallVectorTemplateBase.173" = type { %"class.llvm::SmallVectorTemplateCommon.174" }
%"class.llvm::SmallVectorTemplateCommon.174" = type { %"class.llvm::SmallVectorBase" }
%"struct.llvm::SmallVectorStorage.175" = type { [64 x i8] }
%"class.llvm::ArrayRef" = type { ptr, i64 }

; Function Attrs: mustprogress nounwind uwtable
define hidden void @_ZN4llvm8RAGreedy21aboutToRemoveIntervalERKNS_12LiveIntervalE(ptr noundef nonnull align 8 dereferenceable(29034) %0, ptr noundef nonnull align 8 dereferenceable(120) %1) unnamed_addr #1 align 2 {
  %3 = alloca ptr, align 8
  %4 = alloca ptr, align 8
  %5 = alloca ptr, align 8
  store ptr %0, ptr %3, align 8
  store ptr %1, ptr %4, align 8
  %6 = load ptr, ptr %3, align 8
  %7 = getelementptr inbounds nuw %"class.llvm::RAGreedy", ptr %6, i32 0, i32 28
  %8 = load ptr, ptr %4, align 8
  store ptr %8, ptr %5, align 8
  %9 = call noundef zeroext i1 @_ZN4llvm9SetVectorIPKNS_12LiveIntervalENS_11SmallVectorIS3_Lj8EEENS_8DenseSetIS3_NS_12DenseMapInfoIS3_vEEEELj8EE6removeERKS3_(ptr noundef nonnull align 8 dereferenceable(104) %7, ptr noundef nonnull align 8 dereferenceable(8) %5)
  ret void
}

; Function Attrs: nounwind uwtable
define hidden void @_ZThn56_N4llvm8RAGreedy21aboutToRemoveIntervalERKNS_12LiveIntervalE(ptr noundef %0, ptr noundef nonnull align 8 dereferenceable(120) %1) unnamed_addr #0 align 2 {
  %3 = alloca ptr, align 8
  %4 = alloca ptr, align 8
  store ptr %0, ptr %3, align 8
  store ptr %1, ptr %4, align 8
  %5 = load ptr, ptr %3, align 8
  %6 = getelementptr inbounds i8, ptr %5, i64 -56
  %7 = load ptr, ptr %4, align 8
  tail call void @_ZN4llvm8RAGreedy21aboutToRemoveIntervalERKNS_12LiveIntervalE(ptr noundef nonnull align 8 dereferenceable(29034) %6, ptr noundef nonnull align 8 dereferenceable(120) %7)
  ret void
}