; Function Attrs: nounwind uwtable
define hidden void @_ZThn56_N4llvm8RAGreedy21aboutToRemoveIntervalERKNS_12LiveIntervalE(ptr noundef %0, ptr noundef nonnull align 8 dereferenceable(120) %1) unnamed_addr #5 align 2 {
  %3 = alloca ptr, align 8
  call void @llvm.lifetime.start.p0(i64 8, ptr nonnull %3)
  %4 = getelementptr inbounds i8, ptr %0, i64 28856
  store ptr %1, ptr %3, align 8
  %5 = call noundef zeroext i1 @_ZN4llvm9SetVectorIPKNS_12LiveIntervalENS_11SmallVectorIS3_Lj8EEENS_8DenseSetIS3_NS_12DenseMapInfoIS3_vEEEELj8EE6removeERKS3_(ptr noundef nonnull align 8 dereferenceable(104) %4, ptr noundef nonnull align 8 dereferenceable(8) %3)
  call void @llvm.lifetime.end.p0(i64 8, ptr nonnull %3)
  ret void
}